target datalayout = "e-m:e-p270:32:32-p271:32:32-p272:64:64-i64:64-i128:128-f80:128-n8:16:32:64-S128"
target triple = "x86_64-pc-linux-gnu"

; Function Attrs: mustprogress uwtable
define noundef ptr @_ZN14RtpAudioStream20resizeBufferIfNeededEPsPix(ptr noundef nonnull align 8 dereferenceable(7680) %0, ptr noundef %1, ptr noundef %2, i64 noundef %3) #0 align 2 {
  %5 = alloca ptr, align 8
  %6 = alloca ptr, align 8
  %7 = alloca ptr, align 8
  %8 = alloca i64, align 8
  store ptr %0, ptr %5, align 8
  store ptr %1, ptr %6, align 8
  store ptr %2, ptr %7, align 8
  store i64 %3, ptr %8, align 8
  %9 = load i64, ptr %8, align 8
  %10 = load ptr, ptr %7, align 8
  %11 = load i32, ptr %10, align 4
  %12 = sext i32 %11 to i64
  %13 = icmp sgt i64 %9, %12
  br i1 %13, label %14, label %31

14:                                               ; preds = %4
  br label %15

15:                                               ; preds = %21, %14
  %16 = load i64, ptr %8, align 8
  %17 = load ptr, ptr %7, align 8
  %18 = load i32, ptr %17, align 4
  %19 = sext i32 %18 to i64
  %20 = icmp sgt i64 %16, %19
  br i1 %20, label %21, label %25

21:                                               ; preds = %15
  %22 = load ptr, ptr %7, align 8
  %23 = load i32, ptr %22, align 4
  %24 = mul i32 %23, 2
  store i32 %24, ptr %22, align 4
  br label %15, !llvm.loop !10

25:                                               ; preds = %15
  %26 = load ptr, ptr %6, align 8
  %27 = load ptr, ptr %7, align 8
  %28 = load i32, ptr %27, align 4
  %29 = sext i32 %28 to i64
  %30 = call ptr @g_realloc(ptr noundef %26, i64 noundef %29)
  store ptr %30, ptr %6, align 8
  br label %31

31:                                               ; preds = %25, %4
  %32 = load ptr, ptr %6, align 8
  ret ptr %32
}