; Function Attrs: mustprogress uwtable
define noundef ptr @_ZN14RtpAudioStream20resizeBufferIfNeededEPsPix(ptr nocapture noundef nonnull readnone align 8 dereferenceable(7680) %0, ptr noundef %1, ptr nocapture noundef %2, i64 noundef %3) local_unnamed_addr #0 align 2 {
  %5 = load i32, ptr %2, align 4
  %6 = sext i32 %5 to i64
  %7 = icmp slt i64 %6, %3
  br i1 %7, label %.lr.ph, label %14

.lr.ph:                                           ; preds = %4, %.lr.ph
  %8 = phi i32 [ %9, %.lr.ph ], [ %5, %4 ]
  %9 = shl i32 %8, 1
  %10 = sext i32 %9 to i64
  %11 = icmp slt i64 %10, %3
  br i1 %11, label %.lr.ph, label %12, !llvm.loop !10

12:                                               ; preds = %.lr.ph
  store i32 %9, ptr %2, align 4
  %13 = tail call ptr @g_realloc(ptr noundef %1, i64 noundef %10)
  br label %14

14:                                               ; preds = %12, %4
  %.0 = phi ptr [ %13, %12 ], [ %1, %4 ]
  ret ptr %.0
}